target datalayout = "e-m:e-p270:32:32-p271:32:32-p272:64:64-i64:64-i128:128-f80:128-n8:16:32:64-S128"
target triple = "x86_64-pc-linux-gnu"

%struct._ir_insn = type { %struct.anon, %union.anon.5 }
%struct.anon = type { %union.anon, %union.anon.4 }
%union.anon = type { i32 }
%union.anon.4 = type { i32 }
%union.anon.5 = type { %union._ir_val }
%union._ir_val = type { double }
%struct._ir_ctx = type { ptr, i32, i32, i32, i32, i32, i32, i32, i32, i32, i32, %struct._ir_insn, ptr, ptr, ptr, i32, i32, i32, ptr, ptr, ptr, ptr, ptr, i32, i32, i64, i32, i32, i32, i64, i32, i32, i32, i32, ptr, ptr, ptr, ptr, ptr, ptr, %union.anon.13, ptr, i32, i32, i32, i64, i32, i32, i32, ptr, ptr, ptr, ptr, %struct._ir_strtab, [61 x i32], [14 x i32] }
%union.anon.13 = type { ptr }
%struct._ir_strtab = type { ptr, i32, i32, i32, i32, ptr, i32, i32 }
%struct._ir_proto_t = type { i8, i8, i8, [5 x i8] }

; Function Attrs: nounwind uwtable
define hidden i32 @ir_strl(ptr noundef %0, ptr noundef %1, i64 noundef %2) #0 {
  %4 = alloca ptr, align 8
  %5 = alloca ptr, align 8
  %6 = alloca i64, align 8
  store ptr %0, ptr %4, align 8
  store ptr %1, ptr %5, align 8
  store i64 %2, ptr %6, align 8
  %7 = load ptr, ptr %4, align 8
  %8 = getelementptr inbounds %struct._ir_ctx, ptr %7, i32 0, i32 53
  %9 = getelementptr inbounds %struct._ir_strtab, ptr %8, i32 0, i32 0
  %10 = load ptr, ptr %9, align 8
  %11 = icmp ne ptr %10, null
  br i1 %11, label %15, label %12

12:                                               ; preds = %3
  %13 = load ptr, ptr %4, align 8
  %14 = getelementptr inbounds %struct._ir_ctx, ptr %13, i32 0, i32 53
  call void @ir_strtab_init(ptr noundef %14, i32 noundef 64, i32 noundef 4096)
  br label %15

15:                                               ; preds = %12, %3
  %16 = load ptr, ptr %4, align 8
  %17 = getelementptr inbounds %struct._ir_ctx, ptr %16, i32 0, i32 53
  %18 = load ptr, ptr %5, align 8
  %19 = load i64, ptr %6, align 8
  %20 = trunc i64 %19 to i32
  %21 = load ptr, ptr %4, align 8
  %22 = getelementptr inbounds %struct._ir_ctx, ptr %21, i32 0, i32 53
  %23 = getelementptr inbounds %struct._ir_strtab, ptr %22, i32 0, i32 3
  %24 = load i32, ptr %23, align 8
  %25 = add i32 %24, 1
  %26 = call i32 @ir_strtab_lookup(ptr noundef %17, ptr noundef %18, i32 noundef %20, i32 noundef %25)
  ret i32 %26
}

; Function Attrs: nounwind uwtable
define hidden i32 @ir_proto(ptr noundef %0, i8 noundef zeroext %1, i32 noundef %2, i32 noundef %3, ptr noundef %4) #0 {
  %6 = alloca ptr, align 8
  %7 = alloca i8, align 1
  %8 = alloca i32, align 4
  %9 = alloca i32, align 4
  %10 = alloca ptr, align 8
  %11 = alloca ptr, align 8
  store ptr %0, ptr %6, align 8
  store i8 %1, ptr %7, align 1
  store i32 %2, ptr %8, align 4
  store i32 %3, ptr %9, align 4
  store ptr %4, ptr %10, align 8
  %12 = load i32, ptr %9, align 4
  %13 = zext i32 %12 to i64
  %14 = add i64 3, %13
  %15 = alloca i8, i64 %14, align 16
  store ptr %15, ptr %11, align 8
  %16 = load i8, ptr %7, align 1
  %17 = load ptr, ptr %11, align 8
  %18 = getelementptr inbounds %struct._ir_proto_t, ptr %17, i32 0, i32 0
  store i8 %16, ptr %18, align 1
  %19 = load i32, ptr %8, align 4
  %20 = trunc i32 %19 to i8
  %21 = load ptr, ptr %11, align 8
  %22 = getelementptr inbounds %struct._ir_proto_t, ptr %21, i32 0, i32 1
  store i8 %20, ptr %22, align 1
  %23 = load i32, ptr %9, align 4
  %24 = trunc i32 %23 to i8
  %25 = load ptr, ptr %11, align 8
  %26 = getelementptr inbounds %struct._ir_proto_t, ptr %25, i32 0, i32 2
  store i8 %24, ptr %26, align 1
  %27 = load ptr, ptr %11, align 8
  %28 = getelementptr inbounds %struct._ir_proto_t, ptr %27, i32 0, i32 3
  %29 = getelementptr inbounds [5 x i8], ptr %28, i64 0, i64 0
  %30 = load ptr, ptr %10, align 8
  %31 = load i32, ptr %9, align 4
  %32 = zext i32 %31 to i64
  call void @llvm.memcpy.p0.p0.i64(ptr align 1 %29, ptr align 1 %30, i64 %32, i1 false)
  %33 = load ptr, ptr %6, align 8
  %34 = load ptr, ptr %11, align 8
  %35 = load i32, ptr %9, align 4
  %36 = zext i32 %35 to i64
  %37 = add i64 3, %36
  %38 = call i32 @ir_strl(ptr noundef %33, ptr noundef %34, i64 noundef %37)
  ret i32 %38
}