; Function Attrs: nounwind uwtable
define hidden i32 @ir_proto(ptr noundef %0, i8 noundef zeroext %1, i32 noundef %2, i32 noundef %3, ptr nocapture noundef readonly %4) local_unnamed_addr #0 {
  %6 = zext i32 %3 to i64
  %7 = add nuw nsw i64 %6, 3
  %8 = alloca i8, i64 %7, align 16
  store i8 %1, ptr %8, align 16
  %9 = trunc i32 %2 to i8
  %10 = getelementptr inbounds i8, ptr %8, i64 1
  store i8 %9, ptr %10, align 1
  %11 = trunc i32 %3 to i8
  %12 = getelementptr inbounds i8, ptr %8, i64 2
  store i8 %11, ptr %12, align 2
  %13 = getelementptr inbounds i8, ptr %8, i64 3
  call void @llvm.memcpy.p0.p0.i64(ptr nonnull align 1 %13, ptr align 1 %4, i64 %6, i1 false)
  %14 = getelementptr inbounds i8, ptr %0, i64 336
  %15 = load ptr, ptr %14, align 8
  %.not.i = icmp eq ptr %15, null
  br i1 %.not.i, label %16, label %ir_strl.exit

16:                                               ; preds = %5
  tail call void @ir_strtab_init(ptr noundef nonnull %14, i32 noundef 64, i32 noundef 4096) #20
  br label %ir_strl.exit

ir_strl.exit:                                     ; preds = %5, %16
  %17 = trunc i64 %7 to i32
  %18 = getelementptr inbounds i8, ptr %0, i64 352
  %19 = load i32, ptr %18, align 8
  %20 = add i32 %19, 1
  %21 = call i32 @ir_strtab_lookup(ptr noundef nonnull %14, ptr noundef nonnull %8, i32 noundef %17, i32 noundef %20) #20
  ret i32 %21
}